Certificate:
    Data:
        Version: 3 (0x2)
        Serial Number:
            28:c2:52:87:1e:c6:2a:62:6a:98:00:6b:0b:f2:88:90
        Signature Algorithm: ED25519
        Issuer: C=GB, O=Example, CN=Root CA
        Validity
            Not Before: Jun 29 11:33:07 2022 GMT
            Not After : Jun 28 11:33:07 2027 GMT
        Subject: CN=test-client
        Subject Public Key Info:
            Public Key Algorithm: ED25519
                ED25519 Public-Key:
                pub:
                    e1:80:ad:13:75:48:88:9c:63:ab:81:ff:60:91:07:
                    ae:bc:7c:11:03:4d:06:f5:a0:b7:02:a1:3b:18:41:
                    eb:61
        X509v3 extensions:
            X509v3 Authority Key Identifier: 
                E4:F2:F3:85:0E:B7:85:75:84:76:E3:43:D1:B6:9D:14:B8:E2:A4:B7
            X509v3 Basic Constraints: critical
                CA:FALSE
            X509v3 Extended Key Usage: 
                TLS Web Client Authentication
            X509v3 Key Usage: critical
                Digital Signature
            X509v3 Subject Key Identifier: 
                6B:94:6A:00:0B:7B:0E:92:4D:F2:21:DC:2E:F4:E3:1F:64:C8:2A:DA
    Signature Algorithm: ED25519
    Signature Value:
        a7:37:0d:94:8b:93:31:3a:32:ab:25:99:d0:58:71:8a:43:ff:
        73:64:d2:ea:ee:6a:90:ff:98:1e:07:09:26:4b:c9:d2:b4:53:
        5e:cd:7a:e2:4e:0b:a6:f9:4c:1b:48:0d:c6:57:b8:cd:fa:00:
        25:0f:26:00:03:19:71:02:b2:02
-----BEGIN CERTIFICATE-----
MIIBejCCASygAwIBAgIQKMJShx7GKmJqmABrC/KIkDAFBgMrZXAwMTELMAkGA1UE
BhMCR0IxEDAOBgNVBAoMB0V4YW1wbGUxEDAOBgNVBAMMB1Jvb3QgQ0EwHhcNMjIw
NjI5MTEzMzA3WhcNMjcwNjI4MTEzMzA3WjAWMRQwEgYDVQQDDAt0ZXN0LWNsaWVu
dDAqMAUGAytlcAMhAOGArRN1SIicY6uB/2CRB668fBEDTQb1oLcCoTsYQetho3Uw
czAfBgNVHSMEGDAWgBTk8vOFDreFdYR240PRtp0UuOKktzAMBgNVHRMBAf8EAjAA
MBMGA1UdJQQMMAoGCCsGAQUFBwMCMA4GA1UdDwEB/wQEAwIHgDAdBgNVHQ4EFgQU
a5RqAAt7DpJN8iHcLvTjH2TIKtowBQYDK2VwA0EApzcNlIuTMToyqyWZ0FhxikP/
c2TS6u5qkP+YHgcJJkvJ0rRTXs164k4LpvlMG0gNxle4zfoAJQ8mAAMZcQKyAg==
-----END CERTIFICATE-----
