Certificate:
    Data:
        Version: 3 (0x2)
        Serial Number:
            53:0e:31:74:9a:b4:89:e7:ed:77:db:62:b7:dc:a5:fb
        Signature Algorithm: ED25519
        Issuer: C=GB, O=Example, CN=Root CA
        Validity
            Not Before: Jun 28 19:22:56 2022 GMT
            Not After : Jun 27 19:22:56 2027 GMT
        Subject: CN=test-client
        Subject Public Key Info:
            Public Key Algorithm: ED25519
                ED25519 Public-Key:
                pub:
                    9b:92:6f:39:ec:d2:33:9b:05:de:ec:03:b0:91:d7:
                    02:4a:58:ce:be:c7:c2:a2:6a:9b:c3:22:c1:17:3e:
                    43:8b
        X509v3 extensions:
            X509v3 Authority Key Identifier: 
                AD:06:30:53:A0:26:74:EC:66:2A:6C:0C:77:73:60:BA:F2:35:CA:9A
            X509v3 Basic Constraints: critical
                CA:FALSE
            X509v3 Extended Key Usage: 
                TLS Web Client Authentication
            X509v3 Key Usage: critical
                Digital Signature
            X509v3 Subject Key Identifier: 
                81:24:07:FF:E0:59:37:46:53:0F:04:5D:7F:E5:D2:A3:A6:23:43:4E
    Signature Algorithm: ED25519
    Signature Value:
        34:ba:95:1d:15:2a:84:7a:be:1a:e8:6c:9e:97:6f:04:dd:5c:
        a2:ce:1c:aa:c2:45:e1:95:c7:eb:14:66:a0:dd:b2:bc:3a:94:
        12:ee:2f:ca:04:47:d6:76:ff:ec:11:0f:b0:39:69:a0:77:78:
        73:07:9d:3d:30:ee:f4:f9:13:02
-----BEGIN CERTIFICATE-----
MIIBejCCASygAwIBAgIQUw4xdJq0ieftd9tit9yl+zAFBgMrZXAwMTELMAkGA1UE
BhMCR0IxEDAOBgNVBAoMB0V4YW1wbGUxEDAOBgNVBAMMB1Jvb3QgQ0EwHhcNMjIw
NjI4MTkyMjU2WhcNMjcwNjI3MTkyMjU2WjAWMRQwEgYDVQQDDAt0ZXN0LWNsaWVu
dDAqMAUGAytlcAMhAJuSbzns0jObBd7sA7CR1wJKWM6+x8KiapvDIsEXPkOLo3Uw
czAfBgNVHSMEGDAWgBStBjBToCZ07GYqbAx3c2C68jXKmjAMBgNVHRMBAf8EAjAA
MBMGA1UdJQQMMAoGCCsGAQUFBwMCMA4GA1UdDwEB/wQEAwIHgDAdBgNVHQ4EFgQU
gSQH/+BZN0ZTDwRdf+XSo6YjQ04wBQYDK2VwA0EANLqVHRUqhHq+GuhsnpdvBN1c
os4cqsJF4ZXH6xRmoN2yvDqUEu4vygRH1nb/7BEPsDlpoHd4cwedPTDu9PkTAg==
-----END CERTIFICATE-----
