Certificate:
    Data:
        Version: 3 (0x2)
        Serial Number:
            28:c2:52:87:1e:c6:2a:62:6a:98:00:6b:0b:f2:88:8f
        Signature Algorithm: ED25519
        Issuer: C=GB, O=Example, CN=Root CA
        Validity
            Not Before: Jun 29 11:33:07 2022 GMT
            Not After : Jun 28 11:33:07 2027 GMT
        Subject: CN=test-server
        Subject Public Key Info:
            Public Key Algorithm: ED25519
                ED25519 Public-Key:
                pub:
                    8e:b8:25:4e:51:8d:f7:44:1b:52:90:33:14:b9:0d:
                    05:a4:88:69:4a:21:03:bb:c9:ee:26:34:5a:bd:42:
                    57:93
        X509v3 extensions:
            X509v3 Subject Alternative Name: 
                DNS:localhost, IP Address:127.0.0.1, IP Address:0:0:0:0:0:0:0:1
            X509v3 Subject Key Identifier: 
                39:C1:81:38:01:DC:55:38:E5:2F:4E:7A:D0:4C:84:7B:B7:27:D3:AF
            X509v3 Authority Key Identifier: 
                E4:F2:F3:85:0E:B7:85:75:84:76:E3:43:D1:B6:9D:14:B8:E2:A4:B7
    Signature Algorithm: ED25519
    Signature Value:
        2e:0d:a1:0d:f5:90:77:e9:eb:84:7d:80:63:63:4d:8a:eb:d9:
        23:57:1f:21:2a:ed:81:b4:a8:58:b9:00:1b:cb:5c:90:1b:33:
        6b:f6:ec:42:20:63:54:d6:60:ee:37:14:1b:1c:95:0b:33:ea:
        67:29:d4:cc:d9:7e:34:fd:47:04
-----BEGIN CERTIFICATE-----
MIIBdTCCASegAwIBAgIQKMJShx7GKmJqmABrC/KIjzAFBgMrZXAwMTELMAkGA1UE
BhMCR0IxEDAOBgNVBAoMB0V4YW1wbGUxEDAOBgNVBAMMB1Jvb3QgQ0EwHhcNMjIw
NjI5MTEzMzA3WhcNMjcwNjI4MTEzMzA3WjAWMRQwEgYDVQQDDAt0ZXN0LXNlcnZl
cjAqMAUGAytlcAMhAI64JU5RjfdEG1KQMxS5DQWkiGlKIQO7ye4mNFq9QleTo3Aw
bjAsBgNVHREEJTAjgglsb2NhbGhvc3SHBH8AAAGHEAAAAAAAAAAAAAAAAAAAAAEw
HQYDVR0OBBYEFDnBgTgB3FU45S9OetBMhHu3J9OvMB8GA1UdIwQYMBaAFOTy84UO
t4V1hHbjQ9G2nRS44qS3MAUGAytlcANBAC4NoQ31kHfp64R9gGNjTYrr2SNXHyEq
7YG0qFi5ABvLXJAbM2v27EIgY1TWYO43FBsclQsz6mcp1MzZfjT9RwQ=
-----END CERTIFICATE-----
